target datalayout = "e-m:e-p270:32:32-p271:32:32-p272:64:64-i64:64-i128:128-f80:128-n8:16:32:64-S128"
target triple = "x86_64-pc-linux-gnu"

%"class.pxrInternal_v0_24__pxrReserved__::GfMatrix4d" = type { %"class.pxrInternal_v0_24__pxrReserved__::GfMatrixData" }
%"class.pxrInternal_v0_24__pxrReserved__::GfMatrixData" = type { [16 x double] }
%"class.pxrInternal_v0_24__pxrReserved__::GfMatrix3d" = type { %"class.pxrInternal_v0_24__pxrReserved__::GfMatrixData.16" }
%"class.pxrInternal_v0_24__pxrReserved__::GfMatrixData.16" = type { [9 x double] }

; Function Attrs: mustprogress nounwind uwtable
define linkonce_odr noundef ptr @_ZNK32pxrInternal_v0_24__pxrReserved__12GfMatrixDataIdLi3ELi3EEixEi(ptr noundef nonnull align 8 dereferenceable(72) %0, i32 noundef %1) #2 comdat align 2 {
  %3 = alloca ptr, align 8
  %4 = alloca i32, align 4
  store ptr %0, ptr %3, align 8
  store i32 %1, ptr %4, align 4
  %5 = load ptr, ptr %3, align 8
  %6 = getelementptr inbounds nuw %"class.pxrInternal_v0_24__pxrReserved__::GfMatrixData.16", ptr %5, i32 0, i32 0
  %7 = getelementptr inbounds [9 x double], ptr %6, i64 0, i64 0
  %8 = load i32, ptr %4, align 4
  %9 = mul nsw i32 %8, 3
  %10 = sext i32 %9 to i64
  %11 = getelementptr inbounds double, ptr %7, i64 %10
  ret ptr %11
}

; Function Attrs: mustprogress nounwind uwtable
define linkonce_odr noundef ptr @_ZN32pxrInternal_v0_24__pxrReserved__12GfMatrixDataIdLi4ELi4EEixEi(ptr noundef nonnull align 8 dereferenceable(128) %0, i32 noundef %1) #2 comdat align 2 {
  %3 = alloca ptr, align 8
  %4 = alloca i32, align 4
  store ptr %0, ptr %3, align 8
  store i32 %1, ptr %4, align 4
  %5 = load ptr, ptr %3, align 8
  %6 = getelementptr inbounds nuw %"class.pxrInternal_v0_24__pxrReserved__::GfMatrixData", ptr %5, i32 0, i32 0
  %7 = getelementptr inbounds [16 x double], ptr %6, i64 0, i64 0
  %8 = load i32, ptr %4, align 4
  %9 = mul nsw i32 %8, 4
  %10 = sext i32 %9 to i64
  %11 = getelementptr inbounds double, ptr %7, i64 %10
  ret ptr %11
}

; Function Attrs: mustprogress uwtable
define linkonce_odr noundef ptr @_ZNK32pxrInternal_v0_24__pxrReserved__10GfMatrix3dixEi(ptr noundef nonnull align 8 dereferenceable(72) %0, i32 noundef %1) #0 comdat align 2 {
  %3 = alloca ptr, align 8
  %4 = alloca i32, align 4
  store ptr %0, ptr %3, align 8
  store i32 %1, ptr %4, align 4
  %5 = load ptr, ptr %3, align 8
  %6 = getelementptr inbounds nuw %"class.pxrInternal_v0_24__pxrReserved__::GfMatrix3d", ptr %5, i32 0, i32 0
  %7 = load i32, ptr %4, align 4
  %8 = call noundef ptr @_ZNK32pxrInternal_v0_24__pxrReserved__12GfMatrixDataIdLi3ELi3EEixEi(ptr noundef nonnull align 8 dereferenceable(72) %6, i32 noundef %7)
  ret ptr %8
}

; Function Attrs: mustprogress uwtable
define noundef nonnull align 8 dereferenceable(128) ptr @_ZN32pxrInternal_v0_24__pxrReserved__10GfMatrix4d9SetRotateERKNS_10GfMatrix3dE(ptr noundef nonnull align 8 dereferenceable(128) %0, ptr noundef nonnull align 8 dereferenceable(72) %1) #0 align 2 {
  %3 = alloca ptr, align 8
  %4 = alloca ptr, align 8
  store ptr %0, ptr %3, align 8
  store ptr %1, ptr %4, align 8
  %5 = load ptr, ptr %3, align 8
  %6 = load ptr, ptr %4, align 8
  %7 = call noundef ptr @_ZNK32pxrInternal_v0_24__pxrReserved__10GfMatrix3dixEi(ptr noundef nonnull align 8 dereferenceable(72) %6, i32 noundef 0)
  %8 = getelementptr inbounds double, ptr %7, i64 0
  %9 = load double, ptr %8, align 8
  %10 = getelementptr inbounds nuw %"class.pxrInternal_v0_24__pxrReserved__::GfMatrix4d", ptr %5, i32 0, i32 0
  %11 = call noundef ptr @_ZN32pxrInternal_v0_24__pxrReserved__12GfMatrixDataIdLi4ELi4EEixEi(ptr noundef nonnull align 8 dereferenceable(128) %10, i32 noundef 0)
  %12 = getelementptr inbounds double, ptr %11, i64 0
  store double %9, ptr %12, align 8
  %13 = load ptr, ptr %4, align 8
  %14 = call noundef ptr @_ZNK32pxrInternal_v0_24__pxrReserved__10GfMatrix3dixEi(ptr noundef nonnull align 8 dereferenceable(72) %13, i32 noundef 0)
  %15 = getelementptr inbounds double, ptr %14, i64 1
  %16 = load double, ptr %15, align 8
  %17 = getelementptr inbounds nuw %"class.pxrInternal_v0_24__pxrReserved__::GfMatrix4d", ptr %5, i32 0, i32 0
  %18 = call noundef ptr @_ZN32pxrInternal_v0_24__pxrReserved__12GfMatrixDataIdLi4ELi4EEixEi(ptr noundef nonnull align 8 dereferenceable(128) %17, i32 noundef 0)
  %19 = getelementptr inbounds double, ptr %18, i64 1
  store double %16, ptr %19, align 8
  %20 = load ptr, ptr %4, align 8
  %21 = call noundef ptr @_ZNK32pxrInternal_v0_24__pxrReserved__10GfMatrix3dixEi(ptr noundef nonnull align 8 dereferenceable(72) %20, i32 noundef 0)
  %22 = getelementptr inbounds double, ptr %21, i64 2
  %23 = load double, ptr %22, align 8
  %24 = getelementptr inbounds nuw %"class.pxrInternal_v0_24__pxrReserved__::GfMatrix4d", ptr %5, i32 0, i32 0
  %25 = call noundef ptr @_ZN32pxrInternal_v0_24__pxrReserved__12GfMatrixDataIdLi4ELi4EEixEi(ptr noundef nonnull align 8 dereferenceable(128) %24, i32 noundef 0)
  %26 = getelementptr inbounds double, ptr %25, i64 2
  store double %23, ptr %26, align 8
  %27 = getelementptr inbounds nuw %"class.pxrInternal_v0_24__pxrReserved__::GfMatrix4d", ptr %5, i32 0, i32 0
  %28 = call noundef ptr @_ZN32pxrInternal_v0_24__pxrReserved__12GfMatrixDataIdLi4ELi4EEixEi(ptr noundef nonnull align 8 dereferenceable(128) %27, i32 noundef 0)
  %29 = getelementptr inbounds double, ptr %28, i64 3
  store double 0.000000e+00, ptr %29, align 8
  %30 = load ptr, ptr %4, align 8
  %31 = call noundef ptr @_ZNK32pxrInternal_v0_24__pxrReserved__10GfMatrix3dixEi(ptr noundef nonnull align 8 dereferenceable(72) %30, i32 noundef 1)
  %32 = getelementptr inbounds double, ptr %31, i64 0
  %33 = load double, ptr %32, align 8
  %34 = getelementptr inbounds nuw %"class.pxrInternal_v0_24__pxrReserved__::GfMatrix4d", ptr %5, i32 0, i32 0
  %35 = call noundef ptr @_ZN32pxrInternal_v0_24__pxrReserved__12GfMatrixDataIdLi4ELi4EEixEi(ptr noundef nonnull align 8 dereferenceable(128) %34, i32 noundef 1)
  %36 = getelementptr inbounds double, ptr %35, i64 0
  store double %33, ptr %36, align 8
  %37 = load ptr, ptr %4, align 8
  %38 = call noundef ptr @_ZNK32pxrInternal_v0_24__pxrReserved__10GfMatrix3dixEi(ptr noundef nonnull align 8 dereferenceable(72) %37, i32 noundef 1)
  %39 = getelementptr inbounds double, ptr %38, i64 1
  %40 = load double, ptr %39, align 8
  %41 = getelementptr inbounds nuw %"class.pxrInternal_v0_24__pxrReserved__::GfMatrix4d", ptr %5, i32 0, i32 0
  %42 = call noundef ptr @_ZN32pxrInternal_v0_24__pxrReserved__12GfMatrixDataIdLi4ELi4EEixEi(ptr noundef nonnull align 8 dereferenceable(128) %41, i32 noundef 1)
  %43 = getelementptr inbounds double, ptr %42, i64 1
  store double %40, ptr %43, align 8
  %44 = load ptr, ptr %4, align 8
  %45 = call noundef ptr @_ZNK32pxrInternal_v0_24__pxrReserved__10GfMatrix3dixEi(ptr noundef nonnull align 8 dereferenceable(72) %44, i32 noundef 1)
  %46 = getelementptr inbounds double, ptr %45, i64 2
  %47 = load double, ptr %46, align 8
  %48 = getelementptr inbounds nuw %"class.pxrInternal_v0_24__pxrReserved__::GfMatrix4d", ptr %5, i32 0, i32 0
  %49 = call noundef ptr @_ZN32pxrInternal_v0_24__pxrReserved__12GfMatrixDataIdLi4ELi4EEixEi(ptr noundef nonnull align 8 dereferenceable(128) %48, i32 noundef 1)
  %50 = getelementptr inbounds double, ptr %49, i64 2
  store double %47, ptr %50, align 8
  %51 = getelementptr inbounds nuw %"class.pxrInternal_v0_24__pxrReserved__::GfMatrix4d", ptr %5, i32 0, i32 0
  %52 = call noundef ptr @_ZN32pxrInternal_v0_24__pxrReserved__12GfMatrixDataIdLi4ELi4EEixEi(ptr noundef nonnull align 8 dereferenceable(128) %51, i32 noundef 1)
  %53 = getelementptr inbounds double, ptr %52, i64 3
  store double 0.000000e+00, ptr %53, align 8
  %54 = load ptr, ptr %4, align 8
  %55 = call noundef ptr @_ZNK32pxrInternal_v0_24__pxrReserved__10GfMatrix3dixEi(ptr noundef nonnull align 8 dereferenceable(72) %54, i32 noundef 2)
  %56 = getelementptr inbounds double, ptr %55, i64 0
  %57 = load double, ptr %56, align 8
  %58 = getelementptr inbounds nuw %"class.pxrInternal_v0_24__pxrReserved__::GfMatrix4d", ptr %5, i32 0, i32 0
  %59 = call noundef ptr @_ZN32pxrInternal_v0_24__pxrReserved__12GfMatrixDataIdLi4ELi4EEixEi(ptr noundef nonnull align 8 dereferenceable(128) %58, i32 noundef 2)
  %60 = getelementptr inbounds double, ptr %59, i64 0
  store double %57, ptr %60, align 8
  %61 = load ptr, ptr %4, align 8
  %62 = call noundef ptr @_ZNK32pxrInternal_v0_24__pxrReserved__10GfMatrix3dixEi(ptr noundef nonnull align 8 dereferenceable(72) %61, i32 noundef 2)
  %63 = getelementptr inbounds double, ptr %62, i64 1
  %64 = load double, ptr %63, align 8
  %65 = getelementptr inbounds nuw %"class.pxrInternal_v0_24__pxrReserved__::GfMatrix4d", ptr %5, i32 0, i32 0
  %66 = call noundef ptr @_ZN32pxrInternal_v0_24__pxrReserved__12GfMatrixDataIdLi4ELi4EEixEi(ptr noundef nonnull align 8 dereferenceable(128) %65, i32 noundef 2)
  %67 = getelementptr inbounds double, ptr %66, i64 1
  store double %64, ptr %67, align 8
  %68 = load ptr, ptr %4, align 8
  %69 = call noundef ptr @_ZNK32pxrInternal_v0_24__pxrReserved__10GfMatrix3dixEi(ptr noundef nonnull align 8 dereferenceable(72) %68, i32 noundef 2)
  %70 = getelementptr inbounds double, ptr %69, i64 2
  %71 = load double, ptr %70, align 8
  %72 = getelementptr inbounds nuw %"class.pxrInternal_v0_24__pxrReserved__::GfMatrix4d", ptr %5, i32 0, i32 0
  %73 = call noundef ptr @_ZN32pxrInternal_v0_24__pxrReserved__12GfMatrixDataIdLi4ELi4EEixEi(ptr noundef nonnull align 8 dereferenceable(128) %72, i32 noundef 2)
  %74 = getelementptr inbounds double, ptr %73, i64 2
  store double %71, ptr %74, align 8
  %75 = getelementptr inbounds nuw %"class.pxrInternal_v0_24__pxrReserved__::GfMatrix4d", ptr %5, i32 0, i32 0
  %76 = call noundef ptr @_ZN32pxrInternal_v0_24__pxrReserved__12GfMatrixDataIdLi4ELi4EEixEi(ptr noundef nonnull align 8 dereferenceable(128) %75, i32 noundef 2)
  %77 = getelementptr inbounds double, ptr %76, i64 3
  store double 0.000000e+00, ptr %77, align 8
  %78 = getelementptr inbounds nuw %"class.pxrInternal_v0_24__pxrReserved__::GfMatrix4d", ptr %5, i32 0, i32 0
  %79 = call noundef ptr @_ZN32pxrInternal_v0_24__pxrReserved__12GfMatrixDataIdLi4ELi4EEixEi(ptr noundef nonnull align 8 dereferenceable(128) %78, i32 noundef 3)
  %80 = getelementptr inbounds double, ptr %79, i64 0
  store double 0.000000e+00, ptr %80, align 8
  %81 = getelementptr inbounds nuw %"class.pxrInternal_v0_24__pxrReserved__::GfMatrix4d", ptr %5, i32 0, i32 0
  %82 = call noundef ptr @_ZN32pxrInternal_v0_24__pxrReserved__12GfMatrixDataIdLi4ELi4EEixEi(ptr noundef nonnull align 8 dereferenceable(128) %81, i32 noundef 3)
  %83 = getelementptr inbounds double, ptr %82, i64 1
  store double 0.000000e+00, ptr %83, align 8
  %84 = getelementptr inbounds nuw %"class.pxrInternal_v0_24__pxrReserved__::GfMatrix4d", ptr %5, i32 0, i32 0
  %85 = call noundef ptr @_ZN32pxrInternal_v0_24__pxrReserved__12GfMatrixDataIdLi4ELi4EEixEi(ptr noundef nonnull align 8 dereferenceable(128) %84, i32 noundef 3)
  %86 = getelementptr inbounds double, ptr %85, i64 2
  store double 0.000000e+00, ptr %86, align 8
  %87 = getelementptr inbounds nuw %"class.pxrInternal_v0_24__pxrReserved__::GfMatrix4d", ptr %5, i32 0, i32 0
  %88 = call noundef ptr @_ZN32pxrInternal_v0_24__pxrReserved__12GfMatrixDataIdLi4ELi4EEixEi(ptr noundef nonnull align 8 dereferenceable(128) %87, i32 noundef 3)
  %89 = getelementptr inbounds double, ptr %88, i64 3
  store double 1.000000e+00, ptr %89, align 8
  ret ptr %5
}