; Function Attrs: mustprogress nofree norecurse nosync nounwind willreturn memory(argmem: readwrite) uwtable
define noundef nonnull align 8 dereferenceable(128) ptr @_ZN32pxrInternal_v0_24__pxrReserved__10GfMatrix4d9SetRotateERKNS_10GfMatrix3dE(ptr noundef nonnull returned writeonly align 8 dereferenceable(128) %0, ptr nocapture noundef nonnull readonly align 8 dereferenceable(72) %1) local_unnamed_addr #2 align 2 {
  %3 = load double, ptr %1, align 8
  store double %3, ptr %0, align 8
  %4 = getelementptr inbounds i8, ptr %1, i64 8
  %5 = load double, ptr %4, align 8
  %6 = getelementptr inbounds i8, ptr %0, i64 8
  store double %5, ptr %6, align 8
  %7 = getelementptr inbounds i8, ptr %1, i64 16
  %8 = load double, ptr %7, align 8
  %9 = getelementptr inbounds i8, ptr %0, i64 16
  store double %8, ptr %9, align 8
  %10 = getelementptr inbounds i8, ptr %0, i64 24
  store double 0.000000e+00, ptr %10, align 8
  %11 = getelementptr inbounds i8, ptr %1, i64 24
  %12 = load double, ptr %11, align 8
  %13 = getelementptr inbounds i8, ptr %0, i64 32
  store double %12, ptr %13, align 8
  %14 = getelementptr inbounds i8, ptr %1, i64 32
  %15 = load double, ptr %14, align 8
  %16 = getelementptr inbounds i8, ptr %0, i64 40
  store double %15, ptr %16, align 8
  %17 = getelementptr inbounds i8, ptr %1, i64 40
  %18 = load double, ptr %17, align 8
  %19 = getelementptr inbounds i8, ptr %0, i64 48
  store double %18, ptr %19, align 8
  %20 = getelementptr inbounds i8, ptr %0, i64 56
  store double 0.000000e+00, ptr %20, align 8
  %21 = getelementptr inbounds i8, ptr %1, i64 48
  %22 = load double, ptr %21, align 8
  %23 = getelementptr inbounds i8, ptr %0, i64 64
  store double %22, ptr %23, align 8
  %24 = getelementptr inbounds i8, ptr %1, i64 56
  %25 = load double, ptr %24, align 8
  %26 = getelementptr inbounds i8, ptr %0, i64 72
  store double %25, ptr %26, align 8
  %27 = getelementptr inbounds i8, ptr %1, i64 64
  %28 = load double, ptr %27, align 8
  %29 = getelementptr inbounds i8, ptr %0, i64 80
  store double %28, ptr %29, align 8
  %30 = getelementptr inbounds i8, ptr %0, i64 88
  %31 = getelementptr inbounds i8, ptr %0, i64 120
  tail call void @llvm.memset.p0.i64(ptr noundef nonnull align 8 dereferenceable(32) %30, i8 0, i64 32, i1 false)
  store double 1.000000e+00, ptr %31, align 8
  ret ptr %0
}